(lp0
S'condom'
p1
aS'spoon'
p2
aS'bottle cap'
p3
aS'thong'
p4
aS'nail clippers'
p5
aS'candle'
p6
aS'ice cube'
p7
aS'slipper'
p8
aS'thread'
p9
aS'glow stick'
p10
aS'needle'
p11
aS'stop sign'
p12
aS'blouse'
p13
aS'hanger'
p14
aS'rubber duck'
p15
aS'shovel'
p16
aS'bookmark'
p17
aS'model car'
p18
aS'tampon'
p19
aS'rubber band'
p20
aS'tire swing'
p21
aS'sharpie'
p22
aS'picture frame'
p23
aS'photo album'
p24
aS'nail filer'
p25
aS'tooth paste'
p26
aS'bath fizzers'
p27
aS'tissue box'
p28
aS'deodorant '
p29
aS'cookie jar'
p30
aS'rusty nail'
p31
aS'drill press'
p32
aS'chalk'
p33
aS'word search'
p34
aS'thermometer '
p35
aS'face wash'
p36
aS'paint brush'
p37
aS'candy wrapper'
p38
aS'shoe lace'
p39
aS'leg warmers'
p40
aS'wireless control'
p41
aS'boom box'
p42
aS'quilt'
p43
aS'stockings'
p44
aS'card'
p45
aS'tooth pick'
p46
aS'shawl'
p47
aS'speakers '
p48
aS'key chain'
p49
aS'cork'
p50
aS'helmet'
p51
aS'mouse pad'
p52
aS'zipper'
p53
aS'glasses'
p54
aS'lamp shade'
p55
aS'sketch pad'
p56
aS'gage'
p57
aS'plastic fork'
p58
aS'flag'
p59
aS'clay pot'
p60
aS'check book'
p61
aS'CD '
p62
aS'2 pencil'
p63
aS'fake flowers'
p64
aS'sticky note'
p65
aS'hair tie'
p66
aS'credit card'
p67
aS'sun glasses'
p68
aS'seat belt'
p69
aS'buckel'
p70
aS'button'
p71
aS'canvas'
p72
aS'vase'
p73
aS'lip gloss'
p74
aS'rug'
p75
aS'gel'
p76
aS'twezzers'
p77
aS'toe ring'
p78
aS'scotch tape'
p79
aS'bow'
p80
aS'white out'
p81
aS'grid paper'
p82
aS'earser'
p83
aS'puddle'
p84
aS'cement stone'
p85
aS'sponge'
p86
aS'lace'
p87
aS'outlet'
p88
aS'frizz control'
p89
aS'sailboat'
p90
aS'screw'
p91
aS'sand paper'
p92
aS'eye liner'
p93
aS'pool stick'
p94
aS'pop can'
p95
aS'balloon'
p96
aS'spring'
p97
aS'ipod charger'
p98
aS'twister'
p99
aS'pen'
p100
aS'marker'
p101
aS'ruler'
p102
aS'steel toe boots'
p103
aS'pepsi'
p104
aS'tablet'
p105
ag4
aS'panties'
p106
aS'dd bra'
p107
ag5
aS'inflatable'
p108
aS'micro bikini'
p109
a.(lp0
S'condom'
p1
aS'spoon'
p2
aS'bottle cap'
p3
aS'thong'
p4
aS'nail clippers'
p5
aS'candle'
p6
aS'ice cube'
p7
aS'slipper'
p8
aS'thread'
p9
aS'glow stick'
p10
aS'needle'
p11
aS'stop sign'
p12
aS'blouse'
p13
aS'hanger'
p14
aS'rubber duck'
p15
aS'shovel'
p16
aS'bookmark'
p17
aS'model car'
p18
aS'tampon'
p19
aS'rubber band'
p20
aS'tire swing'
p21
aS'sharpie'
p22
aS'picture frame'
p23
aS'photo album'
p24
aS'nail filer'
p25
aS'tooth paste'
p26
aS'bath fizzers'
p27
aS'tissue box'
p28
aS'deodorant '
p29
aS'cookie jar'
p30
aS'rusty nail'
p31
aS'drill press'
p32
aS'chalk'
p33
aS'word search'
p34
aS'thermometer '
p35
aS'face wash'
p36
aS'paint brush'
p37
aS'candy wrapper'
p38
aS'shoe lace'
p39
aS'leg warmers'
p40
aS'wireless control'
p41
aS'boom box'
p42
aS'quilt'
p43
aS'stockings'
p44
aS'card'
p45
aS'tooth pick'
p46
aS'shawl'
p47
aS'speakers '
p48
aS'key chain'
p49
aS'cork'
p50
aS'helmet'
p51
aS'mouse pad'
p52
aS'zipper'
p53
aS'glasses'
p54
aS'lamp shade'
p55
aS'sketch pad'
p56
aS'gage'
p57
aS'plastic fork'
p58
aS'flag'
p59
aS'clay pot'
p60
aS'check book'
p61
aS'CD '
p62
aS'2 pencil'
p63
aS'fake flowers'
p64
aS'sticky note'
p65
aS'hair tie'
p66
aS'credit card'
p67
aS'sun glasses'
p68
aS'seat belt'
p69
aS'buckel'
p70
aS'button'
p71
aS'canvas'
p72
aS'vase'
p73
aS'lip gloss'
p74
aS'rug'
p75
aS'gel'
p76
aS'twezzers'
p77
aS'toe ring'
p78
aS'scotch tape'
p79
aS'bow'
p80
aS'white out'
p81
aS'grid paper'
p82
aS'earser'
p83
aS'puddle'
p84
aS'cement stone'
p85
aS'sponge'
p86
aS'lace'
p87
aS'outlet'
p88
aS'frizz control'
p89
aS'sailboat'
p90
aS'screw'
p91
aS'sand paper'
p92
aS'eye liner'
p93
aS'pool stick'
p94
aS'pop can'
p95
aS'balloon'
p96
aS'spring'
p97
aS'ipod charger'
p98
aS'twister'
p99
aS'pen'
p100
aS'marker'
p101
aS'ruler'
p102
aS'steel toe boots'
p103
aS'pepsi'
p104
aS'tablet'
p105
ag4
aS'panties'
p106
aS'dd bra'
p107
ag5
aS'inflatable'
p108
aS'micro bikini'
p109
aS'hex nut'
p110
a.(lp0
S'condom'
p1
aS'spoon'
p2
aS'bottle cap'
p3
aS'thong'
p4
aS'nail clippers'
p5
aS'candle'
p6
aS'ice cube'
p7
aS'slipper'
p8
aS'thread'
p9
aS'glow stick'
p10
aS'needle'
p11
aS'stop sign'
p12
aS'blouse'
p13
aS'hanger'
p14
aS'rubber duck'
p15
aS'shovel'
p16
aS'bookmark'
p17
aS'model car'
p18
aS'tampon'
p19
aS'rubber band'
p20
aS'tire swing'
p21
aS'sharpie'
p22
aS'picture frame'
p23
aS'photo album'
p24
aS'nail filer'
p25
aS'tooth paste'
p26
aS'bath fizzers'
p27
aS'tissue box'
p28
aS'deodorant '
p29
aS'cookie jar'
p30
aS'rusty nail'
p31
aS'drill press'
p32
aS'chalk'
p33
aS'word search'
p34
aS'thermometer '
p35
aS'face wash'
p36
aS'paint brush'
p37
aS'candy wrapper'
p38
aS'shoe lace'
p39
aS'leg warmers'
p40
aS'wireless control'
p41
aS'boom box'
p42
aS'quilt'
p43
aS'stockings'
p44
aS'card'
p45
aS'tooth pick'
p46
aS'shawl'
p47
aS'speakers '
p48
aS'key chain'
p49
aS'cork'
p50
aS'helmet'
p51
aS'mouse pad'
p52
aS'zipper'
p53
aS'glasses'
p54
aS'lamp shade'
p55
aS'sketch pad'
p56
aS'gage'
p57
aS'plastic fork'
p58
aS'flag'
p59
aS'clay pot'
p60
aS'check book'
p61
aS'CD '
p62
aS'2 pencil'
p63
aS'fake flowers'
p64
aS'sticky note'
p65
aS'hair tie'
p66
aS'credit card'
p67
aS'sun glasses'
p68
aS'seat belt'
p69
aS'buckel'
p70
aS'button'
p71
aS'canvas'
p72
aS'vase'
p73
aS'lip gloss'
p74
aS'rug'
p75
aS'gel'
p76
aS'twezzers'
p77
aS'toe ring'
p78
aS'scotch tape'
p79
aS'bow'
p80
aS'white out'
p81
aS'grid paper'
p82
aS'earser'
p83
aS'puddle'
p84
aS'cement stone'
p85
aS'sponge'
p86
aS'lace'
p87
aS'outlet'
p88
aS'frizz control'
p89
aS'sailboat'
p90
aS'screw'
p91
aS'sand paper'
p92
aS'eye liner'
p93
aS'pool stick'
p94
aS'pop can'
p95
aS'balloon'
p96
aS'spring'
p97
aS'ipod charger'
p98
aS'twister'
p99
aS'pen'
p100
aS'marker'
p101
aS'ruler'
p102
aS'steel toe boots'
p103
aS'pepsi'
p104
aS'tablet'
p105
ag4
aS'panties'
p106
aS'dd bra'
p107
ag5
aS'inflatable'
p108
aS'micro bikini'
p109
aS'light bulb'
p110
a.(lp0
S'condom'
p1
aS'spoon'
p2
aS'bottle cap'
p3
aS'thong'
p4
aS'nail clippers'
p5
aS'candle'
p6
aS'ice cube'
p7
aS'slipper'
p8
aS'thread'
p9
aS'glow stick'
p10
aS'needle'
p11
aS'stop sign'
p12
aS'blouse'
p13
aS'hanger'
p14
aS'rubber duck'
p15
aS'shovel'
p16
aS'bookmark'
p17
aS'model car'
p18
aS'tampon'
p19
aS'rubber band'
p20
aS'tire swing'
p21
aS'sharpie'
p22
aS'picture frame'
p23
aS'photo album'
p24
aS'nail filer'
p25
aS'tooth paste'
p26
aS'bath fizzers'
p27
aS'tissue box'
p28
aS'deodorant '
p29
aS'cookie jar'
p30
aS'rusty nail'
p31
aS'drill press'
p32
aS'chalk'
p33
aS'word search'
p34
aS'thermometer '
p35
aS'face wash'
p36
aS'paint brush'
p37
aS'candy wrapper'
p38
aS'shoe lace'
p39
aS'leg warmers'
p40
aS'wireless control'
p41
aS'boom box'
p42
aS'quilt'
p43
aS'stockings'
p44
aS'card'
p45
aS'tooth pick'
p46
aS'shawl'
p47
aS'speakers '
p48
aS'key chain'
p49
aS'cork'
p50
aS'helmet'
p51
aS'mouse pad'
p52
aS'zipper'
p53
aS'glasses'
p54
aS'lamp shade'
p55
aS'sketch pad'
p56
aS'gage'
p57
aS'plastic fork'
p58
aS'flag'
p59
aS'clay pot'
p60
aS'check book'
p61
aS'CD '
p62
aS'2 pencil'
p63
aS'fake flowers'
p64
aS'sticky note'
p65
aS'hair tie'
p66
aS'credit card'
p67
aS'sun glasses'
p68
aS'seat belt'
p69
aS'buckel'
p70
aS'button'
p71
aS'canvas'
p72
aS'vase'
p73
aS'lip gloss'
p74
aS'rug'
p75
aS'gel'
p76
aS'twezzers'
p77
aS'toe ring'
p78
aS'scotch tape'
p79
aS'bow'
p80
aS'white out'
p81
aS'grid paper'
p82
aS'earser'
p83
aS'puddle'
p84
aS'cement stone'
p85
aS'sponge'
p86
aS'lace'
p87
aS'outlet'
p88
aS'frizz control'
p89
aS'sailboat'
p90
aS'screw'
p91
aS'sand paper'
p92
aS'eye liner'
p93
aS'pool stick'
p94
aS'pop can'
p95
aS'balloon'
p96
aS'spring'
p97
aS'ipod charger'
p98
aS'twister'
p99
aS'pen'
p100
aS'marker'
p101
aS'ruler'
p102
aS'steel toe boots'
p103
aS'pepsi'
p104
aS'tablet'
p105
ag4
aS'panties'
p106
aS'dd bra'
p107
ag5
aS'inflatable'
p108
aS'micro bikini'
p109
aS'driver'
p110
a.(lp0
S'condom'
p1
aS'spoon'
p2
aS'bottle cap'
p3
aS'thong'
p4
aS'nail clippers'
p5
aS'candle'
p6
aS'ice cube'
p7
aS'slipper'
p8
aS'thread'
p9
aS'glow stick'
p10
aS'needle'
p11
aS'stop sign'
p12
aS'blouse'
p13
aS'hanger'
p14
aS'rubber duck'
p15
aS'shovel'
p16
aS'bookmark'
p17
aS'model car'
p18
aS'tampon'
p19
aS'rubber band'
p20
aS'tire swing'
p21
aS'sharpie'
p22
aS'picture frame'
p23
aS'photo album'
p24
aS'nail filer'
p25
aS'tooth paste'
p26
aS'bath fizzers'
p27
aS'tissue box'
p28
aS'deodorant '
p29
aS'cookie jar'
p30
aS'rusty nail'
p31
aS'drill press'
p32
aS'chalk'
p33
aS'word search'
p34
aS'thermometer '
p35
aS'face wash'
p36
aS'paint brush'
p37
aS'candy wrapper'
p38
aS'shoe lace'
p39
aS'leg warmers'
p40
aS'wireless control'
p41
aS'boom box'
p42
aS'quilt'
p43
aS'stockings'
p44
aS'card'
p45
aS'tooth pick'
p46
aS'shawl'
p47
aS'speakers '
p48
aS'key chain'
p49
aS'cork'
p50
aS'helmet'
p51
aS'mouse pad'
p52
aS'zipper'
p53
aS'glasses'
p54
aS'lamp shade'
p55
aS'sketch pad'
p56
aS'gage'
p57
aS'plastic fork'
p58
aS'flag'
p59
aS'clay pot'
p60
aS'check book'
p61
aS'CD '
p62
aS'2 pencil'
p63
aS'fake flowers'
p64
aS'sticky note'
p65
aS'hair tie'
p66
aS'credit card'
p67
aS'sun glasses'
p68
aS'seat belt'
p69
aS'buckel'
p70
aS'button'
p71
aS'canvas'
p72
aS'vase'
p73
aS'lip gloss'
p74
aS'rug'
p75
aS'gel'
p76
aS'twezzers'
p77
aS'toe ring'
p78
aS'scotch tape'
p79
aS'bow'
p80
aS'white out'
p81
aS'grid paper'
p82
aS'earser'
p83
aS'puddle'
p84
aS'cement stone'
p85
aS'sponge'
p86
aS'lace'
p87
aS'outlet'
p88
aS'frizz control'
p89
aS'sailboat'
p90
aS'screw'
p91
aS'sand paper'
p92
aS'eye liner'
p93
aS'pool stick'
p94
aS'pop can'
p95
aS'balloon'
p96
aS'spring'
p97
aS'ipod charger'
p98
aS'twister'
p99
aS'pen'
p100
aS'marker'
p101
aS'ruler'
p102
aS'steel toe boots'
p103
aS'pepsi'
p104
aS'tablet'
p105
ag4
aS'panties'
p106
aS'dd bra'
p107
ag5
aS'inflatable'
p108
aS'micro bikini'
p109
aS'webcam'
p110
a.(lp0
S'condom'
p1
aS'spoon'
p2
aS'bottle cap'
p3
aS'thong'
p4
aS'nail clippers'
p5
aS'candle'
p6
aS'ice cube'
p7
aS'slipper'
p8
aS'thread'
p9
aS'glow stick'
p10
aS'needle'
p11
aS'stop sign'
p12
aS'blouse'
p13
aS'hanger'
p14
aS'rubber duck'
p15
aS'shovel'
p16
aS'bookmark'
p17
aS'model car'
p18
aS'tampon'
p19
aS'rubber band'
p20
aS'tire swing'
p21
aS'sharpie'
p22
aS'picture frame'
p23
aS'photo album'
p24
aS'nail filer'
p25
aS'tooth paste'
p26
aS'bath fizzers'
p27
aS'tissue box'
p28
aS'deodorant '
p29
aS'cookie jar'
p30
aS'rusty nail'
p31
aS'drill press'
p32
aS'chalk'
p33
aS'word search'
p34
aS'thermometer '
p35
aS'face wash'
p36
aS'paint brush'
p37
aS'candy wrapper'
p38
aS'shoe lace'
p39
aS'leg warmers'
p40
aS'wireless control'
p41
aS'boom box'
p42
aS'quilt'
p43
aS'stockings'
p44
aS'card'
p45
aS'tooth pick'
p46
aS'shawl'
p47
aS'speakers '
p48
aS'key chain'
p49
aS'cork'
p50
aS'helmet'
p51
aS'mouse pad'
p52
aS'zipper'
p53
aS'glasses'
p54
aS'lamp shade'
p55
aS'sketch pad'
p56
aS'gage'
p57
aS'plastic fork'
p58
aS'flag'
p59
aS'clay pot'
p60
aS'check book'
p61
aS'CD '
p62
aS'2 pencil'
p63
aS'fake flowers'
p64
aS'sticky note'
p65
aS'hair tie'
p66
aS'credit card'
p67
aS'sun glasses'
p68
aS'seat belt'
p69
aS'buckel'
p70
aS'button'
p71
aS'canvas'
p72
aS'vase'
p73
aS'lip gloss'
p74
aS'rug'
p75
aS'gel'
p76
aS'twezzers'
p77
aS'toe ring'
p78
aS'scotch tape'
p79
aS'bow'
p80
aS'white out'
p81
aS'grid paper'
p82
aS'earser'
p83
aS'puddle'
p84
aS'cement stone'
p85
aS'sponge'
p86
aS'lace'
p87
aS'outlet'
p88
aS'frizz control'
p89
aS'sailboat'
p90
aS'screw'
p91
aS'sand paper'
p92
aS'eye liner'
p93
aS'pool stick'
p94
aS'pop can'
p95
aS'balloon'
p96
aS'spring'
p97
aS'ipod charger'
p98
aS'twister'
p99
aS'pen'
p100
aS'marker'
p101
aS'ruler'
p102
aS'steel toe boots'
p103
aS'pepsi'
p104
aS'tablet'
p105
ag4
aS'panties'
p106
aS'dd bra'
p107
ag5
aS'inflatable'
p108
aS'micro bikini'
p109
aS'moleskin'
p110
a.(lp0
S'condom'
p1
aS'spoon'
p2
aS'bottle cap'
p3
aS'thong'
p4
aS'nail clippers'
p5
aS'candle'
p6
aS'ice cube'
p7
aS'slipper'
p8
aS'thread'
p9
aS'glow stick'
p10
aS'needle'
p11
aS'stop sign'
p12
aS'blouse'
p13
aS'hanger'
p14
aS'rubber duck'
p15
aS'shovel'
p16
aS'bookmark'
p17
aS'model car'
p18
aS'tampon'
p19
aS'rubber band'
p20
aS'tire swing'
p21
aS'sharpie'
p22
aS'picture frame'
p23
aS'photo album'
p24
aS'nail filer'
p25
aS'tooth paste'
p26
aS'bath fizzers'
p27
aS'tissue box'
p28
aS'deodorant '
p29
aS'cookie jar'
p30
aS'rusty nail'
p31
aS'drill press'
p32
aS'chalk'
p33
aS'word search'
p34
aS'thermometer '
p35
aS'face wash'
p36
aS'paint brush'
p37
aS'candy wrapper'
p38
aS'shoe lace'
p39
aS'leg warmers'
p40
aS'wireless control'
p41
aS'boom box'
p42
aS'quilt'
p43
aS'stockings'
p44
aS'card'
p45
aS'tooth pick'
p46
aS'shawl'
p47
aS'speakers '
p48
aS'key chain'
p49
aS'cork'
p50
aS'helmet'
p51
aS'mouse pad'
p52
aS'zipper'
p53
aS'glasses'
p54
aS'lamp shade'
p55
aS'sketch pad'
p56
aS'gage'
p57
aS'plastic fork'
p58
aS'flag'
p59
aS'clay pot'
p60
aS'check book'
p61
aS'CD '
p62
aS'2 pencil'
p63
aS'fake flowers'
p64
aS'sticky note'
p65
aS'hair tie'
p66
aS'credit card'
p67
aS'sun glasses'
p68
aS'seat belt'
p69
aS'buckel'
p70
aS'button'
p71
aS'canvas'
p72
aS'vase'
p73
aS'lip gloss'
p74
aS'rug'
p75
aS'gel'
p76
aS'twezzers'
p77
aS'toe ring'
p78
aS'scotch tape'
p79
aS'bow'
p80
aS'white out'
p81
aS'grid paper'
p82
aS'earser'
p83
aS'puddle'
p84
aS'cement stone'
p85
aS'sponge'
p86
aS'lace'
p87
aS'outlet'
p88
aS'frizz control'
p89
aS'sailboat'
p90
aS'screw'
p91
aS'sand paper'
p92
aS'eye liner'
p93
aS'pool stick'
p94
aS'pop can'
p95
aS'balloon'
p96
aS'spring'
p97
aS'ipod charger'
p98
aS'twister'
p99
aS'pen'
p100
aS'marker'
p101
aS'ruler'
p102
aS'steel toe boots'
p103
aS'pepsi'
p104
aS'tablet'
p105
ag4
aS'panties'
p106
aS'dd bra'
p107
ag5
aS'inflatable'
p108
aS'micro bikini'
p109
aS'leather boots'
p110
a.(lp0
S'condom'
p1
aS'spoon'
p2
aS'bottle cap'
p3
aS'thong'
p4
aS'nail clippers'
p5
aS'candle'
p6
aS'ice cube'
p7
aS'slipper'
p8
aS'thread'
p9
aS'glow stick'
p10
aS'needle'
p11
aS'stop sign'
p12
aS'blouse'
p13
aS'hanger'
p14
aS'rubber duck'
p15
aS'shovel'
p16
aS'bookmark'
p17
aS'model car'
p18
aS'tampon'
p19
aS'rubber band'
p20
aS'tire swing'
p21
aS'sharpie'
p22
aS'picture frame'
p23
aS'photo album'
p24
aS'nail filer'
p25
aS'tooth paste'
p26
aS'bath fizzers'
p27
aS'tissue box'
p28
aS'deodorant '
p29
aS'cookie jar'
p30
aS'rusty nail'
p31
aS'drill press'
p32
aS'chalk'
p33
aS'word search'
p34
aS'thermometer '
p35
aS'face wash'
p36
aS'paint brush'
p37
aS'candy wrapper'
p38
aS'shoe lace'
p39
aS'leg warmers'
p40
aS'wireless control'
p41
aS'boom box'
p42
aS'quilt'
p43
aS'stockings'
p44
aS'card'
p45
aS'tooth pick'
p46
aS'shawl'
p47
aS'speakers '
p48
aS'key chain'
p49
aS'cork'
p50
aS'helmet'
p51
aS'mouse pad'
p52
aS'zipper'
p53
aS'glasses'
p54
aS'lamp shade'
p55
aS'sketch pad'
p56
aS'gage'
p57
aS'plastic fork'
p58
aS'flag'
p59
aS'clay pot'
p60
aS'check book'
p61
aS'CD '
p62
aS'2 pencil'
p63
aS'fake flowers'
p64
aS'sticky note'
p65
aS'hair tie'
p66
aS'credit card'
p67
aS'sun glasses'
p68
aS'seat belt'
p69
aS'buckel'
p70
aS'button'
p71
aS'canvas'
p72
aS'vase'
p73
aS'lip gloss'
p74
aS'rug'
p75
aS'gel'
p76
aS'twezzers'
p77
aS'toe ring'
p78
aS'scotch tape'
p79
aS'bow'
p80
aS'white out'
p81
aS'grid paper'
p82
aS'earser'
p83
aS'puddle'
p84
aS'cement stone'
p85
aS'sponge'
p86
aS'lace'
p87
aS'outlet'
p88
aS'frizz control'
p89
aS'sailboat'
p90
aS'screw'
p91
aS'sand paper'
p92
aS'eye liner'
p93
aS'pool stick'
p94
aS'pop can'
p95
aS'balloon'
p96
aS'spring'
p97
aS'ipod charger'
p98
aS'twister'
p99
aS'pen'
p100
aS'marker'
p101
aS'ruler'
p102
aS'steel toe boots'
p103
aS'pepsi'
p104
aS'tablet'
p105
ag4
aS'panties'
p106
aS'dd bra'
p107
ag5
aS'inflatable'
p108
aS'micro bikini'
p109
aS'ceiling fan'
p110
a.(lp0
S'condom'
p1
aS'spoon'
p2
aS'bottle cap'
p3
aS'thong'
p4
aS'nail clippers'
p5
aS'candle'
p6
aS'ice cube'
p7
aS'slipper'
p8
aS'thread'
p9
aS'glow stick'
p10
aS'needle'
p11
aS'stop sign'
p12
aS'blouse'
p13
aS'hanger'
p14
aS'rubber duck'
p15
aS'shovel'
p16
aS'bookmark'
p17
aS'model car'
p18
aS'tampon'
p19
aS'rubber band'
p20
aS'tire swing'
p21
aS'sharpie'
p22
aS'picture frame'
p23
aS'photo album'
p24
aS'nail filer'
p25
aS'tooth paste'
p26
aS'bath fizzers'
p27
aS'tissue box'
p28
aS'deodorant '
p29
aS'cookie jar'
p30
aS'rusty nail'
p31
aS'drill press'
p32
aS'chalk'
p33
aS'word search'
p34
aS'thermometer '
p35
aS'face wash'
p36
aS'paint brush'
p37
aS'candy wrapper'
p38
aS'shoe lace'
p39
aS'leg warmers'
p40
aS'wireless control'
p41
aS'boom box'
p42
aS'quilt'
p43
aS'stockings'
p44
aS'card'
p45
aS'tooth pick'
p46
aS'shawl'
p47
aS'speakers '
p48
aS'key chain'
p49
aS'cork'
p50
aS'helmet'
p51
aS'mouse pad'
p52
aS'zipper'
p53
aS'glasses'
p54
aS'lamp shade'
p55
aS'sketch pad'
p56
aS'gage'
p57
aS'plastic fork'
p58
aS'flag'
p59
aS'clay pot'
p60
aS'check book'
p61
aS'CD '
p62
aS'2 pencil'
p63
aS'fake flowers'
p64
aS'sticky note'
p65
aS'hair tie'
p66
aS'credit card'
p67
aS'sun glasses'
p68
aS'seat belt'
p69
aS'buckel'
p70
aS'button'
p71
aS'canvas'
p72
aS'vase'
p73
aS'lip gloss'
p74
aS'rug'
p75
aS'gel'
p76
aS'twezzers'
p77
aS'toe ring'
p78
aS'scotch tape'
p79
aS'bow'
p80
aS'white out'
p81
aS'grid paper'
p82
aS'earser'
p83
aS'puddle'
p84
aS'cement stone'
p85
aS'sponge'
p86
aS'lace'
p87
aS'outlet'
p88
aS'frizz control'
p89
aS'sailboat'
p90
aS'screw'
p91
aS'sand paper'
p92
aS'eye liner'
p93
aS'pool stick'
p94
aS'pop can'
p95
aS'balloon'
p96
aS'spring'
p97
aS'ipod charger'
p98
aS'twister'
p99
aS'pen'
p100
aS'marker'
p101
aS'ruler'
p102
aS'steel toe boots'
p103
aS'pepsi'
p104
aS'tablet'
p105
ag4
aS'panties'
p106
aS'dd bra'
p107
ag5
aS'inflatable'
p108
aS'micro bikini'
p109
aS'tile'
p110
a.(lp0
S'condom'
p1
aS'spoon'
p2
aS'bottle cap'
p3
aS'thong'
p4
aS'nail clippers'
p5
aS'candle'
p6
aS'ice cube'
p7
aS'slipper'
p8
aS'thread'
p9
aS'glow stick'
p10
aS'needle'
p11
aS'stop sign'
p12
aS'blouse'
p13
aS'hanger'
p14
aS'rubber duck'
p15
aS'shovel'
p16
aS'bookmark'
p17
aS'model car'
p18
aS'tampon'
p19
aS'rubber band'
p20
aS'tire swing'
p21
aS'sharpie'
p22
aS'picture frame'
p23
aS'photo album'
p24
aS'nail filer'
p25
aS'tooth paste'
p26
aS'bath fizzers'
p27
aS'tissue box'
p28
aS'deodorant '
p29
aS'cookie jar'
p30
aS'rusty nail'
p31
aS'drill press'
p32
aS'chalk'
p33
aS'word search'
p34
aS'thermometer '
p35
aS'face wash'
p36
aS'paint brush'
p37
aS'candy wrapper'
p38
aS'shoe lace'
p39
aS'leg warmers'
p40
aS'wireless control'
p41
aS'boom box'
p42
aS'quilt'
p43
aS'stockings'
p44
aS'card'
p45
aS'tooth pick'
p46
aS'shawl'
p47
aS'speakers '
p48
aS'key chain'
p49
aS'cork'
p50
aS'helmet'
p51
aS'mouse pad'
p52
aS'zipper'
p53
aS'glasses'
p54
aS'lamp shade'
p55
aS'sketch pad'
p56
aS'gage'
p57
aS'plastic fork'
p58
aS'flag'
p59
aS'clay pot'
p60
aS'check book'
p61
aS'CD '
p62
aS'2 pencil'
p63
aS'fake flowers'
p64
aS'sticky note'
p65
aS'hair tie'
p66
aS'credit card'
p67
aS'sun glasses'
p68
aS'seat belt'
p69
aS'buckel'
p70
aS'button'
p71
aS'canvas'
p72
aS'vase'
p73
aS'lip gloss'
p74
aS'rug'
p75
aS'gel'
p76
aS'twezzers'
p77
aS'toe ring'
p78
aS'scotch tape'
p79
aS'bow'
p80
aS'white out'
p81
aS'grid paper'
p82
aS'earser'
p83
aS'puddle'
p84
aS'cement stone'
p85
aS'sponge'
p86
aS'lace'
p87
aS'outlet'
p88
aS'frizz control'
p89
aS'sailboat'
p90
aS'screw'
p91
aS'sand paper'
p92
aS'eye liner'
p93
aS'pool stick'
p94
aS'pop can'
p95
aS'balloon'
p96
aS'spring'
p97
aS'ipod charger'
p98
aS'twister'
p99
aS'pen'
p100
aS'marker'
p101
aS'ruler'
p102
aS'steel toe boots'
p103
aS'pepsi'
p104
aS'tablet'
p105
ag4
aS'panties'
p106
aS'dd bra'
p107
ag5
aS'inflatable'
p108
aS'micro bikini'
p109
aS'pickle'
p110
a.(lp0
S'condom'
p1
aS'spoon'
p2
aS'bottle cap'
p3
aS'thong'
p4
aS'nail clippers'
p5
aS'candle'
p6
aS'ice cube'
p7
aS'slipper'
p8
aS'thread'
p9
aS'glow stick'
p10
aS'needle'
p11
aS'stop sign'
p12
aS'blouse'
p13
aS'hanger'
p14
aS'rubber duck'
p15
aS'shovel'
p16
aS'bookmark'
p17
aS'model car'
p18
aS'tampon'
p19
aS'rubber band'
p20
aS'tire swing'
p21
aS'sharpie'
p22
aS'picture frame'
p23
aS'photo album'
p24
aS'nail filer'
p25
aS'tooth paste'
p26
aS'bath fizzers'
p27
aS'tissue box'
p28
aS'deodorant '
p29
aS'cookie jar'
p30
aS'rusty nail'
p31
aS'drill press'
p32
aS'chalk'
p33
aS'word search'
p34
aS'thermometer '
p35
aS'face wash'
p36
aS'paint brush'
p37
aS'candy wrapper'
p38
aS'shoe lace'
p39
aS'leg warmers'
p40
aS'wireless control'
p41
aS'boom box'
p42
aS'quilt'
p43
aS'stockings'
p44
aS'card'
p45
aS'tooth pick'
p46
aS'shawl'
p47
aS'speakers '
p48
aS'key chain'
p49
aS'cork'
p50
aS'helmet'
p51
aS'mouse pad'
p52
aS'zipper'
p53
aS'glasses'
p54
aS'lamp shade'
p55
aS'sketch pad'
p56
aS'gage'
p57
aS'plastic fork'
p58
aS'flag'
p59
aS'clay pot'
p60
aS'check book'
p61
aS'CD '
p62
aS'2 pencil'
p63
aS'fake flowers'
p64
aS'sticky note'
p65
aS'hair tie'
p66
aS'credit card'
p67
aS'sun glasses'
p68
aS'seat belt'
p69
aS'buckel'
p70
aS'button'
p71
aS'canvas'
p72
aS'vase'
p73
aS'lip gloss'
p74
aS'rug'
p75
aS'gel'
p76
aS'twezzers'
p77
aS'toe ring'
p78
aS'scotch tape'
p79
aS'bow'
p80
aS'white out'
p81
aS'grid paper'
p82
aS'earser'
p83
aS'puddle'
p84
aS'cement stone'
p85
aS'sponge'
p86
aS'lace'
p87
aS'outlet'
p88
aS'frizz control'
p89
aS'sailboat'
p90
aS'screw'
p91
aS'sand paper'
p92
aS'eye liner'
p93
aS'pool stick'
p94
aS'pop can'
p95
aS'balloon'
p96
aS'spring'
p97
aS'ipod charger'
p98
aS'twister'
p99
aS'pen'
p100
aS'marker'
p101
aS'ruler'
p102
aS'steel toe boots'
p103
aS'pepsi'
p104
aS'tablet'
p105
ag4
aS'panties'
p106
aS'dd bra'
p107
ag5
aS'inflatable'
p108
aS'micro bikini'
p109
aS'catchers mitt'
p110
a.(lp0
S'condom'
p1
aS'spoon'
p2
aS'bottle cap'
p3
aS'thong'
p4
aS'nail clippers'
p5
aS'candle'
p6
aS'ice cube'
p7
aS'slipper'
p8
aS'thread'
p9
aS'glow stick'
p10
aS'needle'
p11
aS'stop sign'
p12
aS'blouse'
p13
aS'hanger'
p14
aS'rubber duck'
p15
aS'shovel'
p16
aS'bookmark'
p17
aS'model car'
p18
aS'tampon'
p19
aS'rubber band'
p20
aS'tire swing'
p21
aS'sharpie'
p22
aS'picture frame'
p23
aS'photo album'
p24
aS'nail filer'
p25
aS'tooth paste'
p26
aS'bath fizzers'
p27
aS'tissue box'
p28
aS'deodorant '
p29
aS'cookie jar'
p30
aS'rusty nail'
p31
aS'drill press'
p32
aS'chalk'
p33
aS'word search'
p34
aS'thermometer '
p35
aS'face wash'
p36
aS'paint brush'
p37
aS'candy wrapper'
p38
aS'shoe lace'
p39
aS'leg warmers'
p40
aS'wireless control'
p41
aS'boom box'
p42
aS'quilt'
p43
aS'stockings'
p44
aS'card'
p45
aS'tooth pick'
p46
aS'shawl'
p47
aS'speakers '
p48
aS'key chain'
p49
aS'cork'
p50
aS'helmet'
p51
aS'mouse pad'
p52
aS'zipper'
p53
aS'glasses'
p54
aS'lamp shade'
p55
aS'sketch pad'
p56
aS'gage'
p57
aS'plastic fork'
p58
aS'flag'
p59
aS'clay pot'
p60
aS'check book'
p61
aS'CD '
p62
aS'2 pencil'
p63
aS'fake flowers'
p64
aS'sticky note'
p65
aS'hair tie'
p66
aS'credit card'
p67
aS'sun glasses'
p68
aS'seat belt'
p69
aS'buckel'
p70
aS'button'
p71
aS'canvas'
p72
aS'vase'
p73
aS'lip gloss'
p74
aS'rug'
p75
aS'gel'
p76
aS'twezzers'
p77
aS'toe ring'
p78
aS'scotch tape'
p79
aS'bow'
p80
aS'white out'
p81
aS'grid paper'
p82
aS'earser'
p83
aS'puddle'
p84
aS'cement stone'
p85
aS'sponge'
p86
aS'lace'
p87
aS'outlet'
p88
aS'frizz control'
p89
aS'sailboat'
p90
aS'screw'
p91
aS'sand paper'
p92
aS'eye liner'
p93
aS'pool stick'
p94
aS'pop can'
p95
aS'balloon'
p96
aS'spring'
p97
aS'ipod charger'
p98
aS'twister'
p99
aS'pen'
p100
aS'marker'
p101
aS'ruler'
p102
aS'steel toe boots'
p103
aS'pepsi'
p104
aS'tablet'
p105
ag4
aS'panties'
p106
aS'dd bra'
p107
ag5
aS'inflatable'
p108
aS'micro bikini'
p109
aS'ball buster'
p110
a.(lp0
S'condom'
p1
aS'spoon'
p2
aS'bottle cap'
p3
aS'thong'
p4
aS'nail clippers'
p5
aS'candle'
p6
aS'ice cube'
p7
aS'slipper'
p8
aS'thread'
p9
aS'glow stick'
p10
aS'needle'
p11
aS'stop sign'
p12
aS'blouse'
p13
aS'hanger'
p14
aS'rubber duck'
p15
aS'shovel'
p16
aS'bookmark'
p17
aS'model car'
p18
aS'tampon'
p19
aS'rubber band'
p20
aS'tire swing'
p21
aS'sharpie'
p22
aS'picture frame'
p23
aS'photo album'
p24
aS'nail filer'
p25
aS'tooth paste'
p26
aS'bath fizzers'
p27
aS'tissue box'
p28
aS'deodorant '
p29
aS'cookie jar'
p30
aS'rusty nail'
p31
aS'drill press'
p32
aS'chalk'
p33
aS'word search'
p34
aS'thermometer '
p35
aS'face wash'
p36
aS'paint brush'
p37
aS'candy wrapper'
p38
aS'shoe lace'
p39
aS'leg warmers'
p40
aS'wireless control'
p41
aS'boom box'
p42
aS'quilt'
p43
aS'stockings'
p44
aS'card'
p45
aS'tooth pick'
p46
aS'shawl'
p47
aS'speakers '
p48
aS'key chain'
p49
aS'cork'
p50
aS'helmet'
p51
aS'mouse pad'
p52
aS'zipper'
p53
aS'glasses'
p54
aS'lamp shade'
p55
aS'sketch pad'
p56
aS'gage'
p57
aS'plastic fork'
p58
aS'flag'
p59
aS'clay pot'
p60
aS'check book'
p61
aS'CD '
p62
aS'2 pencil'
p63
aS'fake flowers'
p64
aS'sticky note'
p65
aS'hair tie'
p66
aS'credit card'
p67
aS'sun glasses'
p68
aS'seat belt'
p69
aS'buckel'
p70
aS'button'
p71
aS'canvas'
p72
aS'vase'
p73
aS'lip gloss'
p74
aS'rug'
p75
aS'gel'
p76
aS'twezzers'
p77
aS'toe ring'
p78
aS'scotch tape'
p79
aS'bow'
p80
aS'white out'
p81
aS'grid paper'
p82
aS'earser'
p83
aS'puddle'
p84
aS'cement stone'
p85
aS'sponge'
p86
aS'lace'
p87
aS'outlet'
p88
aS'frizz control'
p89
aS'sailboat'
p90
aS'screw'
p91
aS'sand paper'
p92
aS'eye liner'
p93
aS'pool stick'
p94
aS'pop can'
p95
aS'balloon'
p96
aS'spring'
p97
aS'ipod charger'
p98
aS'twister'
p99
aS'pen'
p100
aS'marker'
p101
aS'ruler'
p102
aS'steel toe boots'
p103
aS'pepsi'
p104
aS'tablet'
p105
ag4
aS'panties'
p106
aS'dd bra'
p107
ag5
aS'inflatable'
p108
aS'micro bikini'
p109
aS'electronic'
p110
a.(lp0
S'condom'
p1
aS'spoon'
p2
aS'bottle cap'
p3
aS'thong'
p4
aS'nail clippers'
p5
aS'candle'
p6
aS'ice cube'
p7
aS'slipper'
p8
aS'thread'
p9
aS'glow stick'
p10
aS'needle'
p11
aS'stop sign'
p12
aS'blouse'
p13
aS'hanger'
p14
aS'rubber duck'
p15
aS'shovel'
p16
aS'bookmark'
p17
aS'model car'
p18
aS'tampon'
p19
aS'rubber band'
p20
aS'tire swing'
p21
aS'sharpie'
p22
aS'picture frame'
p23
aS'photo album'
p24
aS'nail filer'
p25
aS'tooth paste'
p26
aS'bath fizzers'
p27
aS'tissue box'
p28
aS'deodorant '
p29
aS'cookie jar'
p30
aS'rusty nail'
p31
aS'drill press'
p32
aS'chalk'
p33
aS'word search'
p34
aS'thermometer '
p35
aS'face wash'
p36
aS'paint brush'
p37
aS'candy wrapper'
p38
aS'shoe lace'
p39
aS'leg warmers'
p40
aS'wireless control'
p41
aS'boom box'
p42
aS'quilt'
p43
aS'stockings'
p44
aS'card'
p45
aS'tooth pick'
p46
aS'shawl'
p47
aS'speakers '
p48
aS'key chain'
p49
aS'cork'
p50
aS'helmet'
p51
aS'mouse pad'
p52
aS'zipper'
p53
aS'glasses'
p54
aS'lamp shade'
p55
aS'sketch pad'
p56
aS'gage'
p57
aS'plastic fork'
p58
aS'flag'
p59
aS'clay pot'
p60
aS'check book'
p61
aS'CD '
p62
aS'2 pencil'
p63
aS'fake flowers'
p64
aS'sticky note'
p65
aS'hair tie'
p66
aS'credit card'
p67
aS'sun glasses'
p68
aS'seat belt'
p69
aS'buckel'
p70
aS'button'
p71
aS'canvas'
p72
aS'vase'
p73
aS'lip gloss'
p74
aS'rug'
p75
aS'gel'
p76
aS'twezzers'
p77
aS'toe ring'
p78
aS'scotch tape'
p79
aS'bow'
p80
aS'white out'
p81
aS'grid paper'
p82
aS'earser'
p83
aS'puddle'
p84
aS'cement stone'
p85
aS'sponge'
p86
aS'lace'
p87
aS'outlet'
p88
aS'frizz control'
p89
aS'sailboat'
p90
aS'screw'
p91
aS'sand paper'
p92
aS'eye liner'
p93
aS'pool stick'
p94
aS'pop can'
p95
aS'balloon'
p96
aS'spring'
p97
aS'ipod charger'
p98
aS'twister'
p99
aS'pen'
p100
aS'marker'
p101
aS'ruler'
p102
aS'steel toe boots'
p103
aS'pepsi'
p104
aS'tablet'
p105
ag4
aS'panties'
p106
aS'dd bra'
p107
ag5
aS'inflatable'
p108
aS'micro bikini'
p109
aS'axle'
p110
a.(lp0
S'condom'
p1
aS'spoon'
p2
aS'bottle cap'
p3
aS'thong'
p4
aS'nail clippers'
p5
aS'candle'
p6
aS'ice cube'
p7
aS'slipper'
p8
aS'thread'
p9
aS'glow stick'
p10
aS'needle'
p11
aS'stop sign'
p12
aS'blouse'
p13
aS'hanger'
p14
aS'rubber duck'
p15
aS'shovel'
p16
aS'bookmark'
p17
aS'model car'
p18
aS'tampon'
p19
aS'rubber band'
p20
aS'tire swing'
p21
aS'sharpie'
p22
aS'picture frame'
p23
aS'photo album'
p24
aS'nail filer'
p25
aS'tooth paste'
p26
aS'bath fizzers'
p27
aS'tissue box'
p28
aS'deodorant '
p29
aS'cookie jar'
p30
aS'rusty nail'
p31
aS'drill press'
p32
aS'chalk'
p33
aS'word search'
p34
aS'thermometer '
p35
aS'face wash'
p36
aS'paint brush'
p37
aS'candy wrapper'
p38
aS'shoe lace'
p39
aS'leg warmers'
p40
aS'wireless control'
p41
aS'boom box'
p42
aS'quilt'
p43
aS'stockings'
p44
aS'card'
p45
aS'tooth pick'
p46
aS'shawl'
p47
aS'speakers '
p48
aS'key chain'
p49
aS'cork'
p50
aS'helmet'
p51
aS'mouse pad'
p52
aS'zipper'
p53
aS'glasses'
p54
aS'lamp shade'
p55
aS'sketch pad'
p56
aS'gage'
p57
aS'plastic fork'
p58
aS'flag'
p59
aS'clay pot'
p60
aS'check book'
p61
aS'CD '
p62
aS'2 pencil'
p63
aS'fake flowers'
p64
aS'sticky note'
p65
aS'hair tie'
p66
aS'credit card'
p67
aS'sun glasses'
p68
aS'seat belt'
p69
aS'buckel'
p70
aS'button'
p71
aS'canvas'
p72
aS'vase'
p73
aS'lip gloss'
p74
aS'rug'
p75
aS'gel'
p76
aS'twezzers'
p77
aS'toe ring'
p78
aS'scotch tape'
p79
aS'bow'
p80
aS'white out'
p81
aS'grid paper'
p82
aS'earser'
p83
aS'puddle'
p84
aS'cement stone'
p85
aS'sponge'
p86
aS'lace'
p87
aS'outlet'
p88
aS'frizz control'
p89
aS'sailboat'
p90
aS'screw'
p91
aS'sand paper'
p92
aS'eye liner'
p93
aS'pool stick'
p94
aS'pop can'
p95
aS'balloon'
p96
aS'spring'
p97
aS'ipod charger'
p98
aS'twister'
p99
aS'pen'
p100
aS'marker'
p101
aS'ruler'
p102
aS'steel toe boots'
p103
aS'pepsi'
p104
aS'tablet'
p105
ag4
aS'panties'
p106
aS'dd bra'
p107
ag5
aS'inflatable'
p108
aS'micro bikini'
p109
aS'cv shaft'
p110
a.(lp0
S'condom'
p1
aS'spoon'
p2
aS'bottle cap'
p3
aS'thong'
p4
aS'nail clippers'
p5
aS'candle'
p6
aS'ice cube'
p7
aS'slipper'
p8
aS'thread'
p9
aS'glow stick'
p10
aS'needle'
p11
aS'stop sign'
p12
aS'blouse'
p13
aS'hanger'
p14
aS'rubber duck'
p15
aS'shovel'
p16
aS'bookmark'
p17
aS'model car'
p18
aS'tampon'
p19
aS'rubber band'
p20
aS'tire swing'
p21
aS'sharpie'
p22
aS'picture frame'
p23
aS'photo album'
p24
aS'nail filer'
p25
aS'tooth paste'
p26
aS'bath fizzers'
p27
aS'tissue box'
p28
aS'deodorant '
p29
aS'cookie jar'
p30
aS'rusty nail'
p31
aS'drill press'
p32
aS'chalk'
p33
aS'word search'
p34
aS'thermometer '
p35
aS'face wash'
p36
aS'paint brush'
p37
aS'candy wrapper'
p38
aS'shoe lace'
p39
aS'leg warmers'
p40
aS'wireless control'
p41
aS'boom box'
p42
aS'quilt'
p43
aS'stockings'
p44
aS'card'
p45
aS'tooth pick'
p46
aS'shawl'
p47
aS'speakers '
p48
aS'key chain'
p49
aS'cork'
p50
aS'helmet'
p51
aS'mouse pad'
p52
aS'zipper'
p53
aS'glasses'
p54
aS'lamp shade'
p55
aS'sketch pad'
p56
aS'gage'
p57
aS'plastic fork'
p58
aS'flag'
p59
aS'clay pot'
p60
aS'check book'
p61
aS'CD '
p62
aS'2 pencil'
p63
aS'fake flowers'
p64
aS'sticky note'
p65
aS'hair tie'
p66
aS'credit card'
p67
aS'sun glasses'
p68
aS'seat belt'
p69
aS'buckel'
p70
aS'button'
p71
aS'canvas'
p72
aS'vase'
p73
aS'lip gloss'
p74
aS'rug'
p75
aS'gel'
p76
aS'twezzers'
p77
aS'toe ring'
p78
aS'scotch tape'
p79
aS'bow'
p80
aS'white out'
p81
aS'grid paper'
p82
aS'earser'
p83
aS'puddle'
p84
aS'cement stone'
p85
aS'sponge'
p86
aS'lace'
p87
aS'outlet'
p88
aS'frizz control'
p89
aS'sailboat'
p90
aS'screw'
p91
aS'sand paper'
p92
aS'eye liner'
p93
aS'pool stick'
p94
aS'pop can'
p95
aS'balloon'
p96
aS'spring'
p97
aS'ipod charger'
p98
aS'twister'
p99
aS'pen'
p100
aS'marker'
p101
aS'ruler'
p102
aS'steel toe boots'
p103
aS'pepsi'
p104
aS'tablet'
p105
ag4
aS'panties'
p106
aS'dd bra'
p107
ag5
aS'inflatable'
p108
aS'micro bikini'
p109
aS'spatula'
p110
a.(lp0
S'condom'
p1
aS'spoon'
p2
aS'bottle cap'
p3
aS'thong'
p4
aS'nail clippers'
p5
aS'candle'
p6
aS'ice cube'
p7
aS'slipper'
p8
aS'thread'
p9
aS'glow stick'
p10
aS'needle'
p11
aS'stop sign'
p12
aS'blouse'
p13
aS'hanger'
p14
aS'rubber duck'
p15
aS'shovel'
p16
aS'bookmark'
p17
aS'model car'
p18
aS'tampon'
p19
aS'rubber band'
p20
aS'tire swing'
p21
aS'sharpie'
p22
aS'picture frame'
p23
aS'photo album'
p24
aS'nail filer'
p25
aS'tooth paste'
p26
aS'bath fizzers'
p27
aS'tissue box'
p28
aS'deodorant '
p29
aS'cookie jar'
p30
aS'rusty nail'
p31
aS'drill press'
p32
aS'chalk'
p33
aS'word search'
p34
aS'thermometer '
p35
aS'face wash'
p36
aS'paint brush'
p37
aS'candy wrapper'
p38
aS'shoe lace'
p39
aS'leg warmers'
p40
aS'wireless control'
p41
aS'boom box'
p42
aS'quilt'
p43
aS'stockings'
p44
aS'card'
p45
aS'tooth pick'
p46
aS'shawl'
p47
aS'speakers '
p48
aS'key chain'
p49
aS'cork'
p50
aS'helmet'
p51
aS'mouse pad'
p52
aS'zipper'
p53
aS'glasses'
p54
aS'lamp shade'
p55
aS'sketch pad'
p56
aS'gage'
p57
aS'plastic fork'
p58
aS'flag'
p59
aS'clay pot'
p60
aS'check book'
p61
aS'CD '
p62
aS'2 pencil'
p63
aS'fake flowers'
p64
aS'sticky note'
p65
aS'hair tie'
p66
aS'credit card'
p67
aS'sun glasses'
p68
aS'seat belt'
p69
aS'buckel'
p70
aS'button'
p71
aS'canvas'
p72
aS'vase'
p73
aS'lip gloss'
p74
aS'rug'
p75
aS'gel'
p76
aS'twezzers'
p77
aS'toe ring'
p78
aS'scotch tape'
p79
aS'bow'
p80
aS'white out'
p81
aS'grid paper'
p82
aS'earser'
p83
aS'puddle'
p84
aS'cement stone'
p85
aS'sponge'
p86
aS'lace'
p87
aS'outlet'
p88
aS'frizz control'
p89
aS'sailboat'
p90
aS'screw'
p91
aS'sand paper'
p92
aS'eye liner'
p93
aS'pool stick'
p94
aS'pop can'
p95
aS'balloon'
p96
aS'spring'
p97
aS'ipod charger'
p98
aS'twister'
p99
aS'pen'
p100
aS'marker'
p101
aS'ruler'
p102
aS'steel toe boots'
p103
aS'pepsi'
p104
aS'tablet'
p105
ag4
aS'panties'
p106
aS'dd bra'
p107
ag5
aS'inflatable'
p108
aS'micro bikini'
p109
aS'silk thong'
p110
a.(lp0
S'condom'
p1
aS'spoon'
p2
aS'bottle cap'
p3
aS'thong'
p4
aS'nail clippers'
p5
aS'candle'
p6
aS'ice cube'
p7
aS'slipper'
p8
aS'thread'
p9
aS'glow stick'
p10
aS'needle'
p11
aS'stop sign'
p12
aS'blouse'
p13
aS'hanger'
p14
aS'rubber duck'
p15
aS'shovel'
p16
aS'bookmark'
p17
aS'model car'
p18
aS'tampon'
p19
aS'rubber band'
p20
aS'tire swing'
p21
aS'sharpie'
p(lp0
S'condom'
p1
aS'spoon'
p2
aS'bottle cap'
p3
aS'thong'
p4
aS'nail clippers'
p5
aS'candle'
p6
aS'ice cube'
p7
aS'slipper'
p8
aS'thread'
p9
aS'glow stick'
p10
aS'needle'
p11
aS'stop sign'
p12
aS'blouse'
p13
aS'hanger'
p14
aS'rubber duck'
p15
aS'shovel'
p16
aS'bookmark'
p17
aS'model car'
p18
aS'tampon'
p19
aS'rubber band'
p20
aS'tire swing'
p21
aS'sharpie'
p22
aS'picture frame'
p23
aS'photo album'
p24
aS'nail filer'
p25
aS'tooth paste'
p26
aS'bath fizzers'
p27
aS'tissue box'
p28
aS'deodorant '
p29
aS'cookie jar'
p30
aS'rusty nail'
p31
aS'drill press'
p32
aS'chalk'
p33
aS'word search'
p34
aS'thermometer '
p35
aS'face wash'
p36
aS'paint brush'
p37
aS'candy wrapper'
p38
aS'shoe lace'
p39
aS'leg warmers'
p40
aS'wireless control'
p41
aS'boom box'
p42
aS'quilt'
p43
aS'stockings'
p44
aS'card'
p45
aS'tooth pick'
p46
aS'shawl'
p47
aS'speakers '
p48
aS'key chain'
p49
aS'cork'
p50
aS'helmet'
p51
aS'mouse pad'
p52
aS'zipper'
p53
aS'glasses'
p54
aS'lamp shade'
p55
aS'sketch pad'
p56
aS'gage'
p57
aS'plastic fork'
p58
aS'flag'
p59
aS'clay pot'
p60
aS'check book'
p61
aS'CD '
p62
aS'2 pencil'
p63
aS'fake flowers'
p64
aS'sticky note'
p65
aS'hair tie'
p66
aS'credit card'
p67
aS'sun glasses'
p68
aS'seat belt'
p69
aS'buckel'
p70
aS'button'
p71
aS'canvas'
p72
aS'vase'
p73
aS'lip gloss'
p74
aS'rug'
p75
aS'gel'
p76
aS'twezzers'
p77
aS'toe ring'
p78
aS'scotch tape'
p79
aS'bow'
p80
aS'white out'
p81
aS'grid paper'
p82
aS'earser'
p83
aS'puddle'
p84
aS'cement stone'
p85
aS'sponge'
p86
aS'lace'
p87
aS'outlet'
p88
aS'frizz control'
p89
aS'sailboat'
p90
aS'screw'
p91
aS'sand paper'
p92
aS'eye liner'
p93
aS'pool stick'
p94
aS'pop can'
p95
aS'balloon'
p96
aS'spring'
p97
aS'ipod charger'
p98
aS'twister'
p99
aS'pen'
p100
aS'marker'
p101
aS'ruler'
p102
aS'steel toe boots'
p103
aS'pepsi'
p104
aS'tablet'
p105
ag4
aS'panties'
p106
aS'dd bra'
p107
ag5
aS'inflatable'
p108
aS'micro bikini'
p109
aS'sexy outfit'
p110
a.